target datalayout = "e-m:e-p270:32:32-p271:32:32-p272:64:64-i64:64-i128:128-f80:128-n8:16:32:64-S128"
target triple = "x86_64-pc-linux-gnu"

%struct.err_state_st = type { [16 x i32], [16 x i32], [16 x i64], [16 x ptr], [16 x i64], [16 x i32], [16 x ptr], [16 x i32], [16 x ptr], i32, i32 }

; Function Attrs: nounwind uwtable
define i32 @ERR_clear_last_mark() #0 {
  %1 = alloca i32, align 4
  %2 = alloca ptr, align 8
  %3 = alloca i32, align 4
  %4 = alloca i32, align 4
  call void @llvm.lifetime.start.p0(i64 8, ptr %2) #4
  call void @llvm.lifetime.start.p0(i64 4, ptr %3) #4
  %5 = call ptr @ossl_err_get_state_int()
  store ptr %5, ptr %2, align 8, !tbaa !3
  %6 = load ptr, ptr %2, align 8, !tbaa !3
  %7 = icmp eq ptr %6, null
  br i1 %7, label %8, label %9

8:                                                ; preds = %0
  store i32 0, ptr %1, align 4
  store i32 1, ptr %4, align 4
  br label %53

9:                                                ; preds = %0
  %10 = load ptr, ptr %2, align 8, !tbaa !3
  %11 = getelementptr inbounds nuw %struct.err_state_st, ptr %10, i32 0, i32 9
  %12 = load i32, ptr %11, align 8, !tbaa !11
  store i32 %12, ptr %3, align 4, !tbaa !12
  br label %13

13:                                               ; preds = %36, %9
  %14 = load ptr, ptr %2, align 8, !tbaa !3
  %15 = getelementptr inbounds nuw %struct.err_state_st, ptr %14, i32 0, i32 10
  %16 = load i32, ptr %15, align 4, !tbaa !8
  %17 = load i32, ptr %3, align 4, !tbaa !12
  %18 = icmp ne i32 %16, %17
  br i1 %18, label %19, label %27

19:                                               ; preds = %13
  %20 = load ptr, ptr %2, align 8, !tbaa !3
  %21 = getelementptr inbounds nuw %struct.err_state_st, ptr %20, i32 0, i32 1
  %22 = load i32, ptr %3, align 4, !tbaa !12
  %23 = sext i32 %22 to i64
  %24 = getelementptr inbounds [16 x i32], ptr %21, i64 0, i64 %23
  %25 = load i32, ptr %24, align 4, !tbaa !12
  %26 = icmp eq i32 %25, 0
  br label %27

27:                                               ; preds = %19, %13
  %28 = phi i1 [ false, %13 ], [ %26, %19 ]
  br i1 %28, label %29, label %38

29:                                               ; preds = %27
  %30 = load i32, ptr %3, align 4, !tbaa !12
  %31 = icmp sgt i32 %30, 0
  br i1 %31, label %32, label %35

32:                                               ; preds = %29
  %33 = load i32, ptr %3, align 4, !tbaa !12
  %34 = sub nsw i32 %33, 1
  br label %36

35:                                               ; preds = %29
  br label %36

36:                                               ; preds = %35, %32
  %37 = phi i32 [ %34, %32 ], [ 15, %35 ]
  store i32 %37, ptr %3, align 4, !tbaa !12
  br label %13, !llvm.loop !20

38:                                               ; preds = %27
  %39 = load ptr, ptr %2, align 8, !tbaa !3
  %40 = getelementptr inbounds nuw %struct.err_state_st, ptr %39, i32 0, i32 10
  %41 = load i32, ptr %40, align 4, !tbaa !8
  %42 = load i32, ptr %3, align 4, !tbaa !12
  %43 = icmp eq i32 %41, %42
  br i1 %43, label %44, label %45

44:                                               ; preds = %38
  store i32 0, ptr %1, align 4
  store i32 1, ptr %4, align 4
  br label %53

45:                                               ; preds = %38
  %46 = load ptr, ptr %2, align 8, !tbaa !3
  %47 = getelementptr inbounds nuw %struct.err_state_st, ptr %46, i32 0, i32 1
  %48 = load i32, ptr %3, align 4, !tbaa !12
  %49 = sext i32 %48 to i64
  %50 = getelementptr inbounds [16 x i32], ptr %47, i64 0, i64 %49
  %51 = load i32, ptr %50, align 4, !tbaa !12
  %52 = add nsw i32 %51, -1
  store i32 %52, ptr %50, align 4, !tbaa !12
  store i32 1, ptr %1, align 4
  store i32 1, ptr %4, align 4
  br label %53

53:                                               ; preds = %45, %44, %8
  call void @llvm.lifetime.end.p0(i64 4, ptr %3) #4
  call void @llvm.lifetime.end.p0(i64 8, ptr %2) #4
  %54 = load i32, ptr %1, align 4
  ret i32 %54
}