; Function Attrs: nounwind uwtable
define range(i32 0, 2) i32 @ERR_clear_last_mark() local_unnamed_addr #0 {
  %1 = tail call ptr @ossl_err_get_state_int() #2
  %2 = icmp eq ptr %1, null
  br i1 %2, label %.critedge.thread, label %3

3:                                                ; preds = %0
  %4 = getelementptr inbounds nuw i8, ptr %1, i64 896
  %5 = load i32, ptr %4, align 8, !tbaa !8
  %6 = getelementptr inbounds nuw i8, ptr %1, i64 900
  %7 = load i32, ptr %6, align 4, !tbaa !3
  %.not15 = icmp eq i32 %7, %5
  br i1 %.not15, label %.critedge.thread, label %.lr.ph

.lr.ph:                                           ; preds = %3
  %8 = getelementptr inbounds nuw i8, ptr %1, i64 64
  br label %9

9:                                                ; preds = %.lr.ph, %14
  %.016 = phi i32 [ %5, %.lr.ph ], [ %17, %14 ]
  %10 = sext i32 %.016 to i64
  %11 = getelementptr inbounds [16 x i32], ptr %8, i64 0, i64 %10
  %12 = load i32, ptr %11, align 4, !tbaa !9
  %13 = icmp eq i32 %12, 0
  br i1 %13, label %14, label %.critedge

14:                                               ; preds = %9
  %15 = icmp sgt i32 %.016, 0
  %16 = add nsw i32 %.016, -1
  %17 = select i1 %15, i32 %16, i32 15
  %.not = icmp eq i32 %7, %17
  br i1 %.not, label %.critedge.thread, label %9, !llvm.loop !19

.critedge:                                        ; preds = %9
  %18 = getelementptr inbounds [16 x i32], ptr %8, i64 0, i64 %10
  %19 = add nsw i32 %12, -1
  store i32 %19, ptr %18, align 4, !tbaa !9
  br label %.critedge.thread

.critedge.thread:                                 ; preds = %14, %3, %0, %.critedge
  %.012 = phi i32 [ 1, %.critedge ], [ 0, %0 ], [ 0, %3 ], [ 0, %14 ]
  ret i32 %.012
}